; ModuleID = '57/2262.c'
source_filename = "57/2262.c"
target datalayout = "e-m:e-p270:32:32-p271:32:32-p272:64:64-i64:64-f80:128-n8:16:32:64-S128"
target triple = "x86_64-pc-linux-gnu"

@.str = private unnamed_addr constant [3 x i8] c"%d\00", align 1
@.str.1 = private unnamed_addr constant [3 x i8] c"%s\00", align 1
@.str.2 = private unnamed_addr constant [4 x i8] c"%s\0A\00", align 1

; Function Attrs: noinline nounwind uwtable
define dso_local i32 @main() #0 {
  %1 = alloca i32, align 4
  %2 = alloca i32, align 4
  %3 = alloca i32, align 4
  %4 = alloca i32, align 4
  %5 = alloca i32, align 4
  %6 = alloca [33 x i8], align 16
  store i32 0, i32* %1, align 4
  %7 = call i32 (i8*, ...) @__isoc99_scanf(i8* getelementptr inbounds ([3 x i8], [3 x i8]* @.str, i64 0, i64 0), i32* %4)
  store i32 0, i32* %2, align 4
  br label %8

8:                                                ; preds = %64, %0
  %9 = load i32, i32* %2, align 4
  %10 = load i32, i32* %4, align 4
  %11 = icmp slt i32 %9, %10
  br i1 %11, label %12, label %67

12:                                               ; preds = %8
  %13 = call i32 (i8*, ...) @__isoc99_scanf(i8* getelementptr inbounds ([3 x i8], [3 x i8]* @.str.1, i64 0, i64 0), [33 x i8]* %6)
  %14 = getelementptr inbounds [33 x i8], [33 x i8]* %6, i64 0, i64 0
  %15 = call i64 @strlen(i8* %14) #3
  %16 = trunc i64 %15 to i32
  store i32 %16, i32* %5, align 4
  %17 = load i32, i32* %5, align 4
  %18 = sub nsw i32 %17, 1
  %19 = sext i32 %18 to i64
  %20 = getelementptr inbounds [33 x i8], [33 x i8]* %6, i64 0, i64 %19
  %21 = load i8, i8* %20, align 1
  %22 = sext i8 %21 to i32
  %23 = icmp eq i32 %22, 103
  br i1 %23, label %24, label %31

24:                                               ; preds = %12
  %25 = load i32, i32* %5, align 4
  %26 = sub nsw i32 %25, 3
  %27 = sext i32 %26 to i64
  %28 = getelementptr inbounds [33 x i8], [33 x i8]* %6, i64 0, i64 %27
  store i8 0, i8* %28, align 1
  %29 = getelementptr inbounds [33 x i8], [33 x i8]* %6, i64 0, i64 0
  %30 = call i32 (i8*, ...) @printf(i8* getelementptr inbounds ([4 x i8], [4 x i8]* @.str.2, i64 0, i64 0), i8* %29)
  br label %63

31:                                               ; preds = %12
  %32 = load i32, i32* %5, align 4
  %33 = sub nsw i32 %32, 1
  %34 = sext i32 %33 to i64
  %35 = getelementptr inbounds [33 x i8], [33 x i8]* %6, i64 0, i64 %34
  %36 = load i8, i8* %35, align 1
  %37 = sext i8 %36 to i32
  %38 = icmp eq i32 %37, 121
  br i1 %38, label %39, label %46

39:                                               ; preds = %31
  %40 = load i32, i32* %5, align 4
  %41 = sub nsw i32 %40, 2
  %42 = sext i32 %41 to i64
  %43 = getelementptr inbounds [33 x i8], [33 x i8]* %6, i64 0, i64 %42
  store i8 0, i8* %43, align 1
  %44 = getelementptr inbounds [33 x i8], [33 x i8]* %6, i64 0, i64 0
  %45 = call i32 (i8*, ...) @printf(i8* getelementptr inbounds ([4 x i8], [4 x i8]* @.str.2, i64 0, i64 0), i8* %44)
  br label %62

46:                                               ; preds = %31
  %47 = load i32, i32* %5, align 4
  %48 = sub nsw i32 %47, 1
  %49 = sext i32 %48 to i64
  %50 = getelementptr inbounds [33 x i8], [33 x i8]* %6, i64 0, i64 %49
  %51 = load i8, i8* %50, align 1
  %52 = sext i8 %51 to i32
  %53 = icmp eq i32 %52, 114
  br i1 %53, label %54, label %61

54:                                               ; preds = %46
  %55 = load i32, i32* %5, align 4
  %56 = sub nsw i32 %55, 2
  %57 = sext i32 %56 to i64
  %58 = getelementptr inbounds [33 x i8], [33 x i8]* %6, i64 0, i64 %57
  store i8 0, i8* %58, align 1
  %59 = getelementptr inbounds [33 x i8], [33 x i8]* %6, i64 0, i64 0
  %60 = call i32 (i8*, ...) @printf(i8* getelementptr inbounds ([4 x i8], [4 x i8]* @.str.2, i64 0, i64 0), i8* %59)
  br label %61

61:                                               ; preds = %54, %46
  br label %62

62:                                               ; preds = %61, %39
  br label %63

63:                                               ; preds = %62, %24
  br label %64

64:                                               ; preds = %63
  %65 = load i32, i32* %2, align 4
  %66 = add nsw i32 %65, 1
  store i32 %66, i32* %2, align 4
  br label %8

67:                                               ; preds = %8
  ret i32 0
}

declare dso_local i32 @__isoc99_scanf(i8*, ...) #1

; Function Attrs: nounwind readonly
declare dso_local i64 @strlen(i8*) #2

declare dso_local i32 @printf(i8*, ...) #1


!llvm.module.flags = !{!0}
!llvm.ident = !{!1}

!0 = !{i32 1, !"wchar_size", i32 4}
!1 = !{!"clang version 10.0.0-4ubuntu1 "}
